; Function Attrs: mustprogress uwtable
define hidden void @_Z30exec_Z3_mk_quantifier_const_exR11z3_replayer(ptr noundef nonnull align 8 dereferenceable(8) %0) #0 {
  %2 = tail call noundef ptr @_ZNK11z3_replayer7get_objEj(ptr noundef nonnull align 8 dereferenceable(8) %0, i32 noundef 0)
  %3 = tail call noundef zeroext i1 @_ZNK11z3_replayer8get_boolEj(ptr noundef nonnull align 8 dereferenceable(8) %0, i32 noundef 1)
  %4 = tail call noundef i32 @_ZNK11z3_replayer8get_uintEj(ptr noundef nonnull align 8 dereferenceable(8) %0, i32 noundef 2)
  %5 = tail call noundef ptr @_ZNK11z3_replayer10get_symbolEj(ptr noundef nonnull align 8 dereferenceable(8) %0, i32 noundef 3)
  %6 = tail call noundef ptr @_ZNK11z3_replayer10get_symbolEj(ptr noundef nonnull align 8 dereferenceable(8) %0, i32 noundef 4)
  %7 = tail call noundef i32 @_ZNK11z3_replayer8get_uintEj(ptr noundef nonnull align 8 dereferenceable(8) %0, i32 noundef 5)
  %8 = tail call noundef ptr @_ZNK11z3_replayer13get_obj_arrayEj(ptr noundef nonnull align 8 dereferenceable(8) %0, i32 noundef 6)
  %9 = tail call noundef i32 @_ZNK11z3_replayer8get_uintEj(ptr noundef nonnull align 8 dereferenceable(8) %0, i32 noundef 7)
  %10 = tail call noundef ptr @_ZNK11z3_replayer13get_obj_arrayEj(ptr noundef nonnull align 8 dereferenceable(8) %0, i32 noundef 8)
  %11 = tail call noundef i32 @_ZNK11z3_replayer8get_uintEj(ptr noundef nonnull align 8 dereferenceable(8) %0, i32 noundef 9)
  %12 = tail call noundef ptr @_ZNK11z3_replayer13get_obj_arrayEj(ptr noundef nonnull align 8 dereferenceable(8) %0, i32 noundef 10)
  %13 = tail call noundef ptr @_ZNK11z3_replayer7get_objEj(ptr noundef nonnull align 8 dereferenceable(8) %0, i32 noundef 11)
  %14 = tail call ptr @Z3_mk_quantifier_const_ex(ptr noundef %2, i1 noundef zeroext %3, i32 noundef %4, ptr noundef %5, ptr noundef %6, i32 noundef %7, ptr noundef %8, i32 noundef %9, ptr noundef %10, i32 noundef %11, ptr noundef %12, ptr noundef %13)
  tail call void @_ZN11z3_replayer12store_resultEPv(ptr noundef nonnull align 8 dereferenceable(8) %0, ptr noundef %14)
  ret void
}